; ModuleID = '32/230.c'
source_filename = "32/230.c"
target datalayout = "e-m:e-p270:32:32-p271:32:32-p272:64:64-i64:64-f80:128-n8:16:32:64-S128"
target triple = "x86_64-pc-linux-gnu"

@.str = private unnamed_addr constant [3 x i8] c"%d\00", align 1
@.str.1 = private unnamed_addr constant [3 x i8] c"%s\00", align 1
@.str.2 = private unnamed_addr constant [4 x i8] c"%s\0A\00", align 1

; Function Attrs: noinline nounwind uwtable
define dso_local void @main() #0 {
  %1 = alloca [100 x [100 x i8]], align 16
  %2 = alloca [100 x [100 x i8]], align 16
  %3 = alloca i32, align 4
  %4 = alloca i32, align 4
  %5 = alloca i32, align 4
  %6 = alloca i32, align 4
  %7 = alloca i32, align 4
  store i32 48, i32* %6, align 4
  %8 = call i32 (i8*, ...) @__isoc99_scanf(i8* getelementptr inbounds ([3 x i8], [3 x i8]* @.str, i64 0, i64 0), i32* %3)
  store i32 1, i32* %7, align 4
  br label %9

9:                                                ; preds = %24, %0
  %10 = load i32, i32* %7, align 4
  %11 = load i32, i32* %3, align 4
  %12 = icmp slt i32 %10, %11
  br i1 %12, label %13, label %27

13:                                               ; preds = %9
  %14 = load i32, i32* %7, align 4
  %15 = sext i32 %14 to i64
  %16 = getelementptr inbounds [100 x [100 x i8]], [100 x [100 x i8]]* %1, i64 0, i64 %15
  %17 = getelementptr inbounds [100 x i8], [100 x i8]* %16, i64 0, i64 0
  %18 = call i32 (i8*, ...) @__isoc99_scanf(i8* getelementptr inbounds ([3 x i8], [3 x i8]* @.str.1, i64 0, i64 0), i8* %17)
  %19 = load i32, i32* %7, align 4
  %20 = sext i32 %19 to i64
  %21 = getelementptr inbounds [100 x [100 x i8]], [100 x [100 x i8]]* %2, i64 0, i64 %20
  %22 = getelementptr inbounds [100 x i8], [100 x i8]* %21, i64 0, i64 0
  %23 = call i32 (i8*, ...) @__isoc99_scanf(i8* getelementptr inbounds ([4 x i8], [4 x i8]* @.str.2, i64 0, i64 0), i8* %22)
  br label %24

24:                                               ; preds = %13
  %25 = load i32, i32* %7, align 4
  %26 = add nsw i32 %25, 1
  store i32 %26, i32* %7, align 4
  br label %9

27:                                               ; preds = %9
  %28 = load i32, i32* %7, align 4
  %29 = sext i32 %28 to i64
  %30 = getelementptr inbounds [100 x [100 x i8]], [100 x [100 x i8]]* %1, i64 0, i64 %29
  %31 = getelementptr inbounds [100 x i8], [100 x i8]* %30, i64 0, i64 0
  %32 = call i32 (i8*, ...) @__isoc99_scanf(i8* getelementptr inbounds ([3 x i8], [3 x i8]* @.str.1, i64 0, i64 0), i8* %31)
  %33 = load i32, i32* %7, align 4
  %34 = sext i32 %33 to i64
  %35 = getelementptr inbounds [100 x [100 x i8]], [100 x [100 x i8]]* %2, i64 0, i64 %34
  %36 = getelementptr inbounds [100 x i8], [100 x i8]* %35, i64 0, i64 0
  %37 = call i32 (i8*, ...) @__isoc99_scanf(i8* getelementptr inbounds ([3 x i8], [3 x i8]* @.str.1, i64 0, i64 0), i8* %36)
  store i32 1, i32* %7, align 4
  br label %38

38:                                               ; preds = %161, %27
  %39 = load i32, i32* %7, align 4
  %40 = load i32, i32* %3, align 4
  %41 = icmp sle i32 %39, %40
  br i1 %41, label %42, label %164

42:                                               ; preds = %38
  %43 = load i32, i32* %7, align 4
  %44 = sext i32 %43 to i64
  %45 = getelementptr inbounds [100 x [100 x i8]], [100 x [100 x i8]]* %1, i64 0, i64 %44
  %46 = getelementptr inbounds [100 x i8], [100 x i8]* %45, i64 0, i64 0
  %47 = call i64 @strlen(i8* %46) #3
  %48 = trunc i64 %47 to i32
  store i32 %48, i32* %4, align 4
  %49 = load i32, i32* %7, align 4
  %50 = sext i32 %49 to i64
  %51 = getelementptr inbounds [100 x [100 x i8]], [100 x [100 x i8]]* %2, i64 0, i64 %50
  %52 = getelementptr inbounds [100 x i8], [100 x i8]* %51, i64 0, i64 0
  %53 = call i64 @strlen(i8* %52) #3
  %54 = trunc i64 %53 to i32
  store i32 %54, i32* %5, align 4
  store i32 0, i32* %6, align 4
  br label %55

55:                                               ; preds = %152, %42
  %56 = load i32, i32* %6, align 4
  %57 = load i32, i32* %5, align 4
  %58 = icmp slt i32 %56, %57
  br i1 %58, label %59, label %155

59:                                               ; preds = %55
  %60 = load i32, i32* %7, align 4
  %61 = sext i32 %60 to i64
  %62 = getelementptr inbounds [100 x [100 x i8]], [100 x [100 x i8]]* %1, i64 0, i64 %61
  %63 = load i32, i32* %4, align 4
  %64 = load i32, i32* %6, align 4
  %65 = sub nsw i32 %63, %64
  %66 = sub nsw i32 %65, 1
  %67 = sext i32 %66 to i64
  %68 = getelementptr inbounds [100 x i8], [100 x i8]* %62, i64 0, i64 %67
  %69 = load i8, i8* %68, align 1
  %70 = sext i8 %69 to i32
  %71 = add nsw i32 48, %70
  %72 = load i32, i32* %7, align 4
  %73 = sext i32 %72 to i64
  %74 = getelementptr inbounds [100 x [100 x i8]], [100 x [100 x i8]]* %2, i64 0, i64 %73
  %75 = load i32, i32* %5, align 4
  %76 = load i32, i32* %6, align 4
  %77 = sub nsw i32 %75, %76
  %78 = sub nsw i32 %77, 1
  %79 = sext i32 %78 to i64
  %80 = getelementptr inbounds [100 x i8], [100 x i8]* %74, i64 0, i64 %79
  %81 = load i8, i8* %80, align 1
  %82 = sext i8 %81 to i32
  %83 = sub nsw i32 %71, %82
  %84 = trunc i32 %83 to i8
  %85 = load i32, i32* %7, align 4
  %86 = sext i32 %85 to i64
  %87 = getelementptr inbounds [100 x [100 x i8]], [100 x [100 x i8]]* %1, i64 0, i64 %86
  %88 = load i32, i32* %4, align 4
  %89 = load i32, i32* %6, align 4
  %90 = sub nsw i32 %88, %89
  %91 = sub nsw i32 %90, 1
  %92 = sext i32 %91 to i64
  %93 = getelementptr inbounds [100 x i8], [100 x i8]* %87, i64 0, i64 %92
  store i8 %84, i8* %93, align 1
  %94 = load i32, i32* %7, align 4
  %95 = sext i32 %94 to i64
  %96 = getelementptr inbounds [100 x [100 x i8]], [100 x [100 x i8]]* %1, i64 0, i64 %95
  %97 = load i32, i32* %4, align 4
  %98 = load i32, i32* %6, align 4
  %99 = sub nsw i32 %97, %98
  %100 = sub nsw i32 %99, 1
  %101 = sext i32 %100 to i64
  %102 = getelementptr inbounds [100 x i8], [100 x i8]* %96, i64 0, i64 %101
  %103 = load i8, i8* %102, align 1
  %104 = sext i8 %103 to i32
  %105 = icmp slt i32 %104, 48
  br i1 %105, label %106, label %151

106:                                              ; preds = %59
  %107 = load i32, i32* %7, align 4
  %108 = sext i32 %107 to i64
  %109 = getelementptr inbounds [100 x [100 x i8]], [100 x [100 x i8]]* %1, i64 0, i64 %108
  %110 = load i32, i32* %4, align 4
  %111 = load i32, i32* %6, align 4
  %112 = sub nsw i32 %110, %111
  %113 = sub nsw i32 %112, 2
  %114 = sext i32 %113 to i64
  %115 = getelementptr inbounds [100 x i8], [100 x i8]* %109, i64 0, i64 %114
  %116 = load i8, i8* %115, align 1
  %117 = sext i8 %116 to i32
  %118 = sub nsw i32 %117, 1
  %119 = trunc i32 %118 to i8
  %120 = load i32, i32* %7, align 4
  %121 = sext i32 %120 to i64
  %122 = getelementptr inbounds [100 x [100 x i8]], [100 x [100 x i8]]* %1, i64 0, i64 %121
  %123 = load i32, i32* %4, align 4
  %124 = load i32, i32* %6, align 4
  %125 = sub nsw i32 %123, %124
  %126 = sub nsw i32 %125, 2
  %127 = sext i32 %126 to i64
  %128 = getelementptr inbounds [100 x i8], [100 x i8]* %122, i64 0, i64 %127
  store i8 %119, i8* %128, align 1
  %129 = load i32, i32* %7, align 4
  %130 = sext i32 %129 to i64
  %131 = getelementptr inbounds [100 x [100 x i8]], [100 x [100 x i8]]* %1, i64 0, i64 %130
  %132 = load i32, i32* %4, align 4
  %133 = load i32, i32* %6, align 4
  %134 = sub nsw i32 %132, %133
  %135 = sub nsw i32 %134, 1
  %136 = sext i32 %135 to i64
  %137 = getelementptr inbounds [100 x i8], [100 x i8]* %131, i64 0, i64 %136
  %138 = load i8, i8* %137, align 1
  %139 = sext i8 %138 to i32
  %140 = add nsw i32 %139, 10
  %141 = trunc i32 %140 to i8
  %142 = load i32, i32* %7, align 4
  %143 = sext i32 %142 to i64
  %144 = getelementptr inbounds [100 x [100 x i8]], [100 x [100 x i8]]* %1, i64 0, i64 %143
  %145 = load i32, i32* %4, align 4
  %146 = load i32, i32* %6, align 4
  %147 = sub nsw i32 %145, %146
  %148 = sub nsw i32 %147, 1
  %149 = sext i32 %148 to i64
  %150 = getelementptr inbounds [100 x i8], [100 x i8]* %144, i64 0, i64 %149
  store i8 %141, i8* %150, align 1
  br label %151

151:                                              ; preds = %106, %59
  br label %152

152:                                              ; preds = %151
  %153 = load i32, i32* %6, align 4
  %154 = add nsw i32 %153, 1
  store i32 %154, i32* %6, align 4
  br label %55

155:                                              ; preds = %55
  %156 = load i32, i32* %7, align 4
  %157 = sext i32 %156 to i64
  %158 = getelementptr inbounds [100 x [100 x i8]], [100 x [100 x i8]]* %1, i64 0, i64 %157
  %159 = getelementptr inbounds [100 x i8], [100 x i8]* %158, i64 0, i64 0
  %160 = call i32 (i8*, ...) @printf(i8* getelementptr inbounds ([4 x i8], [4 x i8]* @.str.2, i64 0, i64 0), i8* %159)
  br label %161

161:                                              ; preds = %155
  %162 = load i32, i32* %7, align 4
  %163 = add nsw i32 %162, 1
  store i32 %163, i32* %7, align 4
  br label %38

164:                                              ; preds = %38
  ret void
}

declare dso_local i32 @__isoc99_scanf(i8*, ...) #1

; Function Attrs: nounwind readonly
declare dso_local i64 @strlen(i8*) #2

declare dso_local i32 @printf(i8*, ...) #1


!llvm.module.flags = !{!0}
!llvm.ident = !{!1}

!0 = !{i32 1, !"wchar_size", i32 4}
!1 = !{!"clang version 10.0.0-4ubuntu1 "}
