; ModuleID = 'source-C-CXX/31/230.c'
source_filename = "source-C-CXX/31/230.c"
target datalayout = "e-m:e-p270:32:32-p271:32:32-p272:64:64-i64:64-f80:128-n8:16:32:64-S128"
target triple = "x86_64-pc-linux-gnu"

@.str = private unnamed_addr constant [3 x i8] c"%d\00", align 1
@.str.1 = private unnamed_addr constant [3 x i8] c"%s\00", align 1
@.str.2 = private unnamed_addr constant [4 x i8] c"%s\0A\00", align 1

; Function Attrs: nofree nounwind sspstrong uwtable
define dso_local void @main() local_unnamed_addr #0 {
  %1 = alloca [100 x [100 x i8]], align 16
  %2 = alloca [100 x [100 x i8]], align 16
  %3 = alloca i32, align 4
  %4 = getelementptr inbounds [100 x [100 x i8]], [100 x [100 x i8]]* %1, i64 0, i64 0, i64 0
  call void @llvm.lifetime.start.p0i8(i64 10000, i8* nonnull %4) #5
  %5 = getelementptr inbounds [100 x [100 x i8]], [100 x [100 x i8]]* %2, i64 0, i64 0, i64 0
  call void @llvm.lifetime.start.p0i8(i64 10000, i8* nonnull %5) #5
  %6 = bitcast i32* %3 to i8*
  call void @llvm.lifetime.start.p0i8(i64 4, i8* nonnull %6) #5
  %7 = call i32 (i8*, ...) @__isoc99_scanf(i8* getelementptr inbounds ([3 x i8], [3 x i8]* @.str, i64 0, i64 0), i32* nonnull %3)
  %8 = load i32, i32* %3, align 4, !tbaa !5
  %9 = icmp sgt i32 %8, 1
  br i1 %9, label %10, label %22

10:                                               ; preds = %0, %10
  %11 = phi i64 [ %16, %10 ], [ 1, %0 ]
  %12 = getelementptr inbounds [100 x [100 x i8]], [100 x [100 x i8]]* %1, i64 0, i64 %11, i64 0
  %13 = call i32 (i8*, ...) @__isoc99_scanf(i8* getelementptr inbounds ([3 x i8], [3 x i8]* @.str.1, i64 0, i64 0), i8* nonnull %12)
  %14 = getelementptr inbounds [100 x [100 x i8]], [100 x [100 x i8]]* %2, i64 0, i64 %11, i64 0
  %15 = call i32 (i8*, ...) @__isoc99_scanf(i8* getelementptr inbounds ([4 x i8], [4 x i8]* @.str.2, i64 0, i64 0), i8* nonnull %14)
  %16 = add nuw nsw i64 %11, 1
  %17 = load i32, i32* %3, align 4, !tbaa !5
  %18 = sext i32 %17 to i64
  %19 = icmp slt i64 %16, %18
  br i1 %19, label %10, label %20, !llvm.loop !9

20:                                               ; preds = %10
  %21 = and i64 %16, 4294967295
  br label %22

22:                                               ; preds = %20, %0
  %23 = phi i64 [ 1, %0 ], [ %21, %20 ]
  %24 = getelementptr inbounds [100 x [100 x i8]], [100 x [100 x i8]]* %1, i64 0, i64 %23, i64 0
  %25 = call i32 (i8*, ...) @__isoc99_scanf(i8* getelementptr inbounds ([3 x i8], [3 x i8]* @.str.1, i64 0, i64 0), i8* nonnull %24)
  %26 = getelementptr inbounds [100 x [100 x i8]], [100 x [100 x i8]]* %2, i64 0, i64 %23, i64 0
  %27 = call i32 (i8*, ...) @__isoc99_scanf(i8* getelementptr inbounds ([3 x i8], [3 x i8]* @.str.1, i64 0, i64 0), i8* nonnull %26)
  %28 = load i32, i32* %3, align 4, !tbaa !5
  %29 = icmp slt i32 %28, 1
  br i1 %29, label %72, label %30

30:                                               ; preds = %22, %66
  %31 = phi i64 [ %68, %66 ], [ 1, %22 ]
  %32 = getelementptr inbounds [100 x [100 x i8]], [100 x [100 x i8]]* %1, i64 0, i64 %31, i64 0
  %33 = getelementptr inbounds [100 x [100 x i8]], [100 x [100 x i8]]* %2, i64 0, i64 %31, i64 0
  %34 = call i64 @strlen(i8* noundef nonnull %33) #6
  %35 = trunc i64 %34 to i32
  %36 = icmp sgt i32 %35, 0
  br i1 %36, label %37, label %66

37:                                               ; preds = %30
  %38 = call i64 @strlen(i8* noundef nonnull %32) #6
  %39 = shl i64 %38, 32
  %40 = ashr exact i64 %39, 32
  %41 = and i64 %34, 4294967295
  br label %42

42:                                               ; preds = %37, %63
  %43 = phi i64 [ 0, %37 ], [ %64, %63 ]
  %44 = sub nsw i64 %40, %43
  %45 = add nsw i64 %44, -1
  %46 = getelementptr inbounds [100 x [100 x i8]], [100 x [100 x i8]]* %1, i64 0, i64 %31, i64 %45
  %47 = load i8, i8* %46, align 1, !tbaa !11
  %48 = add i8 %47, 48
  %49 = xor i64 %43, -1
  %50 = add i64 %34, %49
  %51 = shl i64 %50, 32
  %52 = ashr exact i64 %51, 32
  %53 = getelementptr inbounds [100 x [100 x i8]], [100 x [100 x i8]]* %2, i64 0, i64 %31, i64 %52
  %54 = load i8, i8* %53, align 1, !tbaa !11
  %55 = sub i8 %48, %54
  store i8 %55, i8* %46, align 1, !tbaa !11
  %56 = icmp slt i8 %55, 48
  br i1 %56, label %57, label %63

57:                                               ; preds = %42
  %58 = add nsw i64 %44, -2
  %59 = getelementptr inbounds [100 x [100 x i8]], [100 x [100 x i8]]* %1, i64 0, i64 %31, i64 %58
  %60 = load i8, i8* %59, align 1, !tbaa !11
  %61 = add i8 %60, -1
  store i8 %61, i8* %59, align 1, !tbaa !11
  %62 = add nsw i8 %55, 10
  store i8 %62, i8* %46, align 1, !tbaa !11
  br label %63

63:                                               ; preds = %42, %57
  %64 = add nuw nsw i64 %43, 1
  %65 = icmp eq i64 %64, %41
  br i1 %65, label %66, label %42, !llvm.loop !12

66:                                               ; preds = %63, %30
  %67 = call i32 @puts(i8* nonnull %32)
  %68 = add nuw nsw i64 %31, 1
  %69 = load i32, i32* %3, align 4, !tbaa !5
  %70 = sext i32 %69 to i64
  %71 = icmp slt i64 %31, %70
  br i1 %71, label %30, label %72, !llvm.loop !13

72:                                               ; preds = %66, %22
  call void @llvm.lifetime.end.p0i8(i64 4, i8* nonnull %6) #5
  call void @llvm.lifetime.end.p0i8(i64 10000, i8* nonnull %5) #5
  call void @llvm.lifetime.end.p0i8(i64 10000, i8* nonnull %4) #5
  ret void
}

; Function Attrs: argmemonly mustprogress nofree nosync nounwind willreturn
declare void @llvm.lifetime.start.p0i8(i64 immarg, i8* nocapture) #1

; Function Attrs: nofree nounwind
declare noundef i32 @__isoc99_scanf(i8* nocapture noundef readonly, ...) local_unnamed_addr #2

; Function Attrs: argmemonly mustprogress nofree nounwind readonly willreturn
declare i64 @strlen(i8* nocapture) local_unnamed_addr #3

; Function Attrs: argmemonly mustprogress nofree nosync nounwind willreturn
declare void @llvm.lifetime.end.p0i8(i64 immarg, i8* nocapture) #1

; Function Attrs: nofree nounwind
declare noundef i32 @puts(i8* nocapture noundef readonly) local_unnamed_addr #4


!llvm.module.flags = !{!0, !1, !2, !3}
!llvm.ident = !{!4}

!0 = !{i32 1, !"wchar_size", i32 4}
!1 = !{i32 7, !"PIC Level", i32 2}
!2 = !{i32 7, !"PIE Level", i32 2}
!3 = !{i32 7, !"uwtable", i32 1}
!4 = !{!"clang version 13.0.0"}
!5 = !{!6, !6, i64 0}
!6 = !{!"int", !7, i64 0}
!7 = !{!"omnipotent char", !8, i64 0}
!8 = !{!"Simple C/C++ TBAA"}
!9 = distinct !{!9, !10}
!10 = !{!"llvm.loop.mustprogress"}
!11 = !{!7, !7, i64 0}
!12 = distinct !{!12, !10}
!13 = distinct !{!13, !10}
